(lp0
(dp1
S'url'
p2
Vhttp://scfire-mtc-aa01.stream.aol.com:80/stream/1048
p3
sS'type'
p4
Vaudio
p5
sS'title'
p6
VRadio Paradise
p7
sa(dp8
g2
Vhttp://66.225.205.8:80/
p9
sg4
Vaudio
p10
sg6
VFolk Alley
p11
sa(dp12
g2
Vhttp://npr.ic.llnwd.net/stream/npr_live24
p13
sg4
Vaudio
p14
sg6
VNPR
p15
sa(dp16
g2
Vhttp://mp3-wes-sea141.rbn.com:8000/cspan/cspan/mp3live/live
p17
sg4
Vaudio
p18
sg6
VCSPAN
p19
sa.